; Function Attrs: mustprogress uwtable
define noundef zeroext i1 @_ZN5Ipopt16TSymLinearSolver15IncreaseQualityEv(ptr nocapture noundef nonnull align 8 dereferenceable(133) %0) unnamed_addr #3 align 2 personality ptr @__gxx_personality_v0 {
  %2 = alloca %"class.std::__cxx11::basic_string", align 8
  %3 = alloca %"class.std::allocator.13", align 1
  %4 = getelementptr inbounds i8, ptr %0, i64 80
  %5 = load ptr, ptr %4, align 8
  %.not9 = icmp eq ptr %5, null
  br i1 %.not9, label %32, label %6

6:                                                ; preds = %1
  %7 = getelementptr inbounds i8, ptr %0, i64 96
  %8 = load i8, ptr %7, align 8
  %9 = and i8 %8, 1
  %.not = icmp eq i8 %9, 0
  br i1 %.not, label %10, label %32

10:                                               ; preds = %6
  %11 = getelementptr inbounds i8, ptr %0, i64 69
  %12 = load i8, ptr %11, align 1
  %13 = and i8 %12, 1
  %.not5 = icmp eq i8 %13, 0
  br i1 %.not5, label %32, label %14

14:                                               ; preds = %10
  %15 = getelementptr inbounds i8, ptr %0, i64 16
  %16 = load ptr, ptr %15, align 8
  %17 = load ptr, ptr %16, align 8
  %18 = getelementptr inbounds i8, ptr %17, i64 16
  %19 = load ptr, ptr %18, align 8
  tail call void (ptr, i32, i32, ptr, ...) %19(ptr noundef nonnull align 8 dereferenceable(40) %16, i32 noundef 6, i32 noundef 7, ptr noundef nonnull @.str.14)
  %20 = getelementptr inbounds i8, ptr %0, i64 32
  %21 = load ptr, ptr %20, align 8
  call void @_ZNSaIcEC1Ev(ptr noundef nonnull align 1 dereferenceable(1) %3) #13
  %22 = invoke noundef ptr @_ZNSt7__cxx1112basic_stringIcSt11char_traitsIcESaIcEE13_M_local_dataEv(ptr noundef nonnull align 8 dereferenceable(32) %2)
          to label %.noexc unwind label %28

.noexc:                                           ; preds = %14
  invoke void @_ZNSt7__cxx1112basic_stringIcSt11char_traitsIcESaIcEE12_Alloc_hiderC1EPcRKS3_(ptr noundef nonnull align 8 dereferenceable(8) %2, ptr noundef %22, ptr noundef nonnull align 1 dereferenceable(1) %3)
          to label %.noexc7 unwind label %28

.noexc7:                                          ; preds = %.noexc
  invoke void @_ZNSt7__cxx1112basic_stringIcSt11char_traitsIcESaIcEE12_M_constructIPKcEEvT_S8_St20forward_iterator_tag(ptr noundef nonnull align 8 dereferenceable(32) %2, ptr noundef nonnull @.str.15, ptr noundef nonnull getelementptr inbounds ([3 x i8], ptr @.str.15, i64 0, i64 2))
          to label %_ZNSt7__cxx1112basic_stringIcSt11char_traitsIcESaIcEEC2IS3_EEPKcRKS3_.exit unwind label %23

23:                                               ; preds = %.noexc7
  %24 = landingpad { ptr, i32 }
          cleanup
  call void @_ZNSaIcED2Ev(ptr noundef nonnull align 1 dereferenceable(1) %2) #13
  br label %.body

_ZNSt7__cxx1112basic_stringIcSt11char_traitsIcESaIcEEC2IS3_EEPKcRKS3_.exit: ; preds = %.noexc7
  %25 = getelementptr inbounds i8, ptr %21, i64 160
  %26 = invoke noundef nonnull align 8 dereferenceable(32) ptr @_ZNSt7__cxx1112basic_stringIcSt11char_traitsIcESaIcEEpLERKS4_(ptr noundef nonnull align 8 dereferenceable(32) %25, ptr noundef nonnull align 8 dereferenceable(32) %2)
          to label %_ZN5Ipopt9IpoptData18Append_info_stringERKNSt7__cxx1112basic_stringIcSt11char_traitsIcESaIcEEE.exit unwind label %30

_ZN5Ipopt9IpoptData18Append_info_stringERKNSt7__cxx1112basic_stringIcSt11char_traitsIcESaIcEEE.exit: ; preds = %_ZNSt7__cxx1112basic_stringIcSt11char_traitsIcESaIcEEC2IS3_EEPKcRKS3_.exit
  call void @_ZNSt7__cxx1112basic_stringIcSt11char_traitsIcESaIcEED1Ev(ptr noundef nonnull align 8 dereferenceable(32) %2) #13
  call void @_ZNSaIcED1Ev(ptr noundef nonnull align 1 dereferenceable(1) %3) #13
  store i8 1, ptr %7, align 8
  %27 = getelementptr inbounds i8, ptr %0, i64 97
  store i8 1, ptr %27, align 1
  br label %39

28:                                               ; preds = %.noexc, %14
  %29 = landingpad { ptr, i32 }
          cleanup
  br label %.body

30:                                               ; preds = %_ZNSt7__cxx1112basic_stringIcSt11char_traitsIcESaIcEEC2IS3_EEPKcRKS3_.exit
  %31 = landingpad { ptr, i32 }
          cleanup
  call void @_ZNSt7__cxx1112basic_stringIcSt11char_traitsIcESaIcEED1Ev(ptr noundef nonnull align 8 dereferenceable(32) %2) #13
  br label %.body

.body:                                            ; preds = %28, %23, %30
  %.pn = phi { ptr, i32 } [ %31, %30 ], [ %29, %28 ], [ %24, %23 ]
  call void @_ZNSaIcED1Ev(ptr noundef nonnull align 1 dereferenceable(1) %3) #13
  resume { ptr, i32 } %.pn

32:                                               ; preds = %10, %6, %1
  %33 = getelementptr inbounds i8, ptr %0, i64 72
  %34 = load ptr, ptr %33, align 8
  %35 = load ptr, ptr %34, align 8
  %36 = getelementptr inbounds i8, ptr %35, i64 56
  %37 = load ptr, ptr %36, align 8
  %38 = tail call noundef zeroext i1 %37(ptr noundef nonnull align 8 dereferenceable(49) %34)
  br label %39

39:                                               ; preds = %32, %_ZN5Ipopt9IpoptData18Append_info_stringERKNSt7__cxx1112basic_stringIcSt11char_traitsIcESaIcEEE.exit
  %.04 = phi i1 [ %38, %32 ], [ true, %_ZN5Ipopt9IpoptData18Append_info_stringERKNSt7__cxx1112basic_stringIcSt11char_traitsIcESaIcEEE.exit ]
  ret i1 %.04
}